target datalayout = "e-m:e-p270:32:32-p271:32:32-p272:64:64-i64:64-i128:128-f80:128-n8:16:32:64-S128"
target triple = "x86_64-pc-linux-gnu"

; Function Attrs: nounwind uwtable
define void @transpose64Simple(ptr noundef %0, ptr noundef %1) #0 {
  %3 = alloca ptr, align 8
  %4 = alloca ptr, align 8
  %5 = alloca i32, align 4
  %6 = alloca i32, align 4
  store ptr %0, ptr %3, align 8, !tbaa !48
  store ptr %1, ptr %4, align 8, !tbaa !48
  call void @llvm.lifetime.start.p0(i64 4, ptr %5) #11
  call void @llvm.lifetime.start.p0(i64 4, ptr %6) #11
  store i32 0, ptr %5, align 4, !tbaa !24
  br label %7

7:                                                ; preds = %15, %2
  %8 = load i32, ptr %5, align 4, !tbaa !24
  %9 = icmp slt i32 %8, 64
  br i1 %9, label %10, label %18

10:                                               ; preds = %7
  %11 = load ptr, ptr %4, align 8, !tbaa !48
  %12 = load i32, ptr %5, align 4, !tbaa !24
  %13 = sext i32 %12 to i64
  %14 = getelementptr inbounds i64, ptr %11, i64 %13
  store i64 0, ptr %14, align 8, !tbaa !50
  br label %15

15:                                               ; preds = %10
  %16 = load i32, ptr %5, align 4, !tbaa !24
  %17 = add nsw i32 %16, 1
  store i32 %17, ptr %5, align 4, !tbaa !24
  br label %7, !llvm.loop !82

18:                                               ; preds = %7
  store i32 0, ptr %5, align 4, !tbaa !24
  br label %19

19:                                               ; preds = %53, %18
  %20 = load i32, ptr %5, align 4, !tbaa !24
  %21 = icmp slt i32 %20, 64
  br i1 %21, label %22, label %56

22:                                               ; preds = %19
  store i32 0, ptr %6, align 4, !tbaa !24
  br label %23

23:                                               ; preds = %49, %22
  %24 = load i32, ptr %6, align 4, !tbaa !24
  %25 = icmp slt i32 %24, 64
  br i1 %25, label %26, label %52

26:                                               ; preds = %23
  %27 = load ptr, ptr %3, align 8, !tbaa !48
  %28 = load i32, ptr %5, align 4, !tbaa !24
  %29 = sext i32 %28 to i64
  %30 = getelementptr inbounds i64, ptr %27, i64 %29
  %31 = load i64, ptr %30, align 8, !tbaa !50
  %32 = load i32, ptr %6, align 4, !tbaa !24
  %33 = zext i32 %32 to i64
  %34 = lshr i64 %31, %33
  %35 = and i64 %34, 1
  %36 = icmp ne i64 %35, 0
  br i1 %36, label %37, label %48

37:                                               ; preds = %26
  %38 = load i32, ptr %5, align 4, !tbaa !24
  %39 = sub nsw i32 63, %38
  %40 = zext i32 %39 to i64
  %41 = shl i64 1, %40
  %42 = load ptr, ptr %4, align 8, !tbaa !48
  %43 = load i32, ptr %6, align 4, !tbaa !24
  %44 = sext i32 %43 to i64
  %45 = getelementptr inbounds i64, ptr %42, i64 %44
  %46 = load i64, ptr %45, align 8, !tbaa !50
  %47 = or i64 %46, %41
  store i64 %47, ptr %45, align 8, !tbaa !50
  br label %48

48:                                               ; preds = %37, %26
  br label %49

49:                                               ; preds = %48
  %50 = load i32, ptr %6, align 4, !tbaa !24
  %51 = add nsw i32 %50, 1
  store i32 %51, ptr %6, align 4, !tbaa !24
  br label %23, !llvm.loop !83

52:                                               ; preds = %23
  br label %53

53:                                               ; preds = %52
  %54 = load i32, ptr %5, align 4, !tbaa !24
  %55 = add nsw i32 %54, 1
  store i32 %55, ptr %5, align 4, !tbaa !24
  br label %19, !llvm.loop !84

56:                                               ; preds = %19
  call void @llvm.lifetime.end.p0(i64 4, ptr %6) #11
  call void @llvm.lifetime.end.p0(i64 4, ptr %5) #11
  ret void
}