; Function Attrs: nofree norecurse nosync nounwind memory(argmem: readwrite) uwtable
define void @transpose64Simple(ptr noundef readonly captures(none) %0, ptr noundef captures(none) initializes((0, 512)) %1) local_unnamed_addr #6 {
.preheader.preheader:
  tail call void @llvm.memset.p0.i64(ptr noundef nonnull align 8 dereferenceable(512) %1, i8 0, i64 512, i1 false), !tbaa !40
  br label %.preheader

.preheader:                                       ; preds = %.preheader.preheader, %13
  %indvars.iv20 = phi i64 [ 0, %.preheader.preheader ], [ %indvars.iv.next21, %13 ]
  %2 = getelementptr inbounds nuw i64, ptr %0, i64 %indvars.iv20
  %3 = lshr exact i64 -9223372036854775808, %indvars.iv20
  br label %4

4:                                                ; preds = %.preheader, %12
  %indvars.iv = phi i64 [ 0, %.preheader ], [ %indvars.iv.next, %12 ]
  %5 = load i64, ptr %2, align 8, !tbaa !40
  %6 = shl nuw i64 1, %indvars.iv
  %7 = and i64 %5, %6
  %.not = icmp eq i64 %7, 0
  br i1 %.not, label %12, label %8

8:                                                ; preds = %4
  %9 = getelementptr inbounds nuw i64, ptr %1, i64 %indvars.iv
  %10 = load i64, ptr %9, align 8, !tbaa !40
  %11 = or i64 %10, %3
  store i64 %11, ptr %9, align 8, !tbaa !40
  br label %12

12:                                               ; preds = %4, %8
  %indvars.iv.next = add nuw nsw i64 %indvars.iv, 1
  %exitcond.not = icmp eq i64 %indvars.iv.next, 64
  br i1 %exitcond.not, label %13, label %4, !llvm.loop !65

13:                                               ; preds = %12
  %indvars.iv.next21 = add nuw nsw i64 %indvars.iv20, 1
  %exitcond23.not = icmp eq i64 %indvars.iv.next21, 64
  br i1 %exitcond23.not, label %14, label %.preheader, !llvm.loop !66

14:                                               ; preds = %13
  ret void
}